; Function Attrs: mustprogress uwtable
define hidden void @_ZN11th_rewriter7cleanupEv(ptr noundef nonnull align 8 dereferenceable(16) %this) local_unnamed_addr #3 align 2 {
entry:
  %0 = load ptr, ptr %this, align 8
  %1 = getelementptr i8, ptr %0, i64 8
  %.val = load ptr, ptr %1, align 8
  %vtable = load ptr, ptr %0, align 8
  %2 = load ptr, ptr %vtable, align 8
  tail call void %2(ptr noundef nonnull align 8 dereferenceable(3128) %0) #18
  %3 = load ptr, ptr %this, align 8
  %m_params = getelementptr inbounds i8, ptr %this, i64 8
  tail call void @_ZN11th_rewriter3impC2ER11ast_managerRK10params_ref(ptr noundef nonnull align 8 dereferenceable(3128) %3, ptr noundef nonnull align 8 dereferenceable(976) %.val, ptr noundef nonnull align 8 dereferenceable(8) %m_params)
  ret void
}